; Function Attrs: inlinehint nounwind uwtable
define internal fastcc void @Vec_IntAppendMinus(ptr noundef captures(none) initializes((4, 8)) %0, ptr noundef readonly captures(none) %1, i32 noundef range(i32 0, 2) %2) unnamed_addr #4 {
  %4 = getelementptr inbounds nuw i8, ptr %0, i64 4
  store i32 0, ptr %4, align 4, !tbaa !30
  %5 = getelementptr i8, ptr %1, i64 4
  %.val10 = load i32, ptr %5, align 4, !tbaa !30
  %6 = icmp sgt i32 %.val10, 0
  br i1 %6, label %.lr.ph, label %.critedge

.lr.ph:                                           ; preds = %3
  %7 = getelementptr i8, ptr %1, i64 8
  %.not = icmp eq i32 %2, 0
  %.phi.trans.insert.i = getelementptr inbounds nuw i8, ptr %0, i64 8
  br i1 %.not, label %.lr.ph.split.us, label %.lr.ph.split

.lr.ph.split.us:                                  ; preds = %.lr.ph, %Vec_IntPush.exit.us
  %indvars.iv14 = phi i64 [ %indvars.iv.next15, %Vec_IntPush.exit.us ], [ 0, %.lr.ph ]
  %.val9.us = load ptr, ptr %7, align 8, !tbaa !33
  %8 = getelementptr inbounds nuw i32, ptr %.val9.us, i64 %indvars.iv14
  %9 = load i32, ptr %8, align 4, !tbaa !52
  %10 = load i32, ptr %4, align 4, !tbaa !30
  %11 = load i32, ptr %0, align 8, !tbaa !32
  %12 = icmp eq i32 %10, %11
  br i1 %12, label %13, label %.Vec_IntGrow.exit10_crit_edge.i.us

.Vec_IntGrow.exit10_crit_edge.i.us:               ; preds = %.lr.ph.split.us
  %.pre.i.us = load ptr, ptr %.phi.trans.insert.i, align 8, !tbaa !33
  br label %Vec_IntPush.exit.us

13:                                               ; preds = %.lr.ph.split.us
  %14 = icmp slt i32 %10, 16
  br i1 %14, label %26, label %15

15:                                               ; preds = %13
  %16 = shl nuw nsw i32 %10, 1
  %17 = load ptr, ptr %.phi.trans.insert.i, align 8, !tbaa !33
  %.not9.i9.i.us = icmp eq ptr %17, null
  %18 = zext nneg i32 %16 to i64
  %19 = shl nuw nsw i64 %18, 2
  br i1 %.not9.i9.i.us, label %22, label %20

20:                                               ; preds = %15
  %21 = tail call ptr @realloc(ptr noundef nonnull %17, i64 noundef %19) #24
  br label %24

22:                                               ; preds = %15
  %23 = tail call noalias ptr @malloc(i64 noundef %19) #23
  br label %24

24:                                               ; preds = %22, %20
  %25 = phi ptr [ %21, %20 ], [ %23, %22 ]
  store ptr %25, ptr %.phi.trans.insert.i, align 8, !tbaa !33
  store i32 %16, ptr %0, align 8, !tbaa !32
  br label %Vec_IntPush.exit.us

26:                                               ; preds = %13
  %27 = load ptr, ptr %.phi.trans.insert.i, align 8, !tbaa !33
  %.not9.i.i.us = icmp eq ptr %27, null
  br i1 %.not9.i.i.us, label %30, label %28

28:                                               ; preds = %26
  %29 = tail call dereferenceable_or_null(64) ptr @realloc(ptr noundef nonnull %27, i64 noundef 64) #24
  br label %Vec_IntGrow.exit.i.us

30:                                               ; preds = %26
  %31 = tail call noalias dereferenceable_or_null(64) ptr @malloc(i64 noundef 64) #23
  br label %Vec_IntGrow.exit.i.us

Vec_IntGrow.exit.i.us:                            ; preds = %30, %28
  %32 = phi ptr [ %29, %28 ], [ %31, %30 ]
  store ptr %32, ptr %.phi.trans.insert.i, align 8, !tbaa !33
  store i32 16, ptr %0, align 8, !tbaa !32
  br label %Vec_IntPush.exit.us

Vec_IntPush.exit.us:                              ; preds = %Vec_IntGrow.exit.i.us, %24, %.Vec_IntGrow.exit10_crit_edge.i.us
  %33 = phi ptr [ %.pre.i.us, %.Vec_IntGrow.exit10_crit_edge.i.us ], [ %25, %24 ], [ %32, %Vec_IntGrow.exit.i.us ]
  %34 = load i32, ptr %4, align 4, !tbaa !30
  %35 = add nsw i32 %34, 1
  store i32 %35, ptr %4, align 4, !tbaa !30
  %36 = sext i32 %34 to i64
  %37 = getelementptr inbounds i32, ptr %33, i64 %36
  store i32 %9, ptr %37, align 4, !tbaa !52
  %indvars.iv.next15 = add nuw nsw i64 %indvars.iv14, 1
  %.val.us = load i32, ptr %5, align 4, !tbaa !30
  %38 = sext i32 %.val.us to i64
  %39 = icmp slt i64 %indvars.iv.next15, %38
  br i1 %39, label %.lr.ph.split.us, label %.critedge, !llvm.loop !83

.lr.ph.split:                                     ; preds = %.lr.ph, %Vec_IntPush.exit
  %indvars.iv = phi i64 [ %indvars.iv.next, %Vec_IntPush.exit ], [ 0, %.lr.ph ]
  %.val9 = load ptr, ptr %7, align 8, !tbaa !33
  %40 = getelementptr inbounds nuw i32, ptr %.val9, i64 %indvars.iv
  %41 = load i32, ptr %40, align 4, !tbaa !52
  %42 = sub nsw i32 0, %41
  %43 = load i32, ptr %4, align 4, !tbaa !30
  %44 = load i32, ptr %0, align 8, !tbaa !32
  %45 = icmp eq i32 %43, %44
  br i1 %45, label %46, label %.Vec_IntGrow.exit10_crit_edge.i

.Vec_IntGrow.exit10_crit_edge.i:                  ; preds = %.lr.ph.split
  %.pre.i = load ptr, ptr %.phi.trans.insert.i, align 8, !tbaa !33
  br label %Vec_IntPush.exit

46:                                               ; preds = %.lr.ph.split
  %47 = icmp slt i32 %43, 16
  br i1 %47, label %48, label %55

48:                                               ; preds = %46
  %49 = load ptr, ptr %.phi.trans.insert.i, align 8, !tbaa !33
  %.not9.i.i = icmp eq ptr %49, null
  br i1 %.not9.i.i, label %52, label %50

50:                                               ; preds = %48
  %51 = tail call dereferenceable_or_null(64) ptr @realloc(ptr noundef nonnull %49, i64 noundef 64) #24
  br label %Vec_IntGrow.exit.i

52:                                               ; preds = %48
  %53 = tail call noalias dereferenceable_or_null(64) ptr @malloc(i64 noundef 64) #23
  br label %Vec_IntGrow.exit.i

Vec_IntGrow.exit.i:                               ; preds = %52, %50
  %54 = phi ptr [ %51, %50 ], [ %53, %52 ]
  store ptr %54, ptr %.phi.trans.insert.i, align 8, !tbaa !33
  store i32 16, ptr %0, align 8, !tbaa !32
  br label %Vec_IntPush.exit

55:                                               ; preds = %46
  %56 = shl nuw nsw i32 %43, 1
  %57 = load ptr, ptr %.phi.trans.insert.i, align 8, !tbaa !33
  %.not9.i9.i = icmp eq ptr %57, null
  %58 = zext nneg i32 %56 to i64
  %59 = shl nuw nsw i64 %58, 2
  br i1 %.not9.i9.i, label %62, label %60

60:                                               ; preds = %55
  %61 = tail call ptr @realloc(ptr noundef nonnull %57, i64 noundef %59) #24
  br label %64

62:                                               ; preds = %55
  %63 = tail call noalias ptr @malloc(i64 noundef %59) #23
  br label %64

64:                                               ; preds = %62, %60
  %65 = phi ptr [ %61, %60 ], [ %63, %62 ]
  store ptr %65, ptr %.phi.trans.insert.i, align 8, !tbaa !33
  store i32 %56, ptr %0, align 8, !tbaa !32
  br label %Vec_IntPush.exit

Vec_IntPush.exit:                                 ; preds = %.Vec_IntGrow.exit10_crit_edge.i, %Vec_IntGrow.exit.i, %64
  %66 = phi ptr [ %.pre.i, %.Vec_IntGrow.exit10_crit_edge.i ], [ %65, %64 ], [ %54, %Vec_IntGrow.exit.i ]
  %67 = load i32, ptr %4, align 4, !tbaa !30
  %68 = add nsw i32 %67, 1
  store i32 %68, ptr %4, align 4, !tbaa !30
  %69 = sext i32 %67 to i64
  %70 = getelementptr inbounds i32, ptr %66, i64 %69
  store i32 %42, ptr %70, align 4, !tbaa !52
  %indvars.iv.next = add nuw nsw i64 %indvars.iv, 1
  %.val = load i32, ptr %5, align 4, !tbaa !30
  %71 = sext i32 %.val to i64
  %72 = icmp slt i64 %indvars.iv.next, %71
  br i1 %72, label %.lr.ph.split, label %.critedge, !llvm.loop !83

.critedge:                                        ; preds = %Vec_IntPush.exit, %Vec_IntPush.exit.us, %3
  ret void
}